target datalayout = "e-m:e-p270:32:32-p271:32:32-p272:64:64-i64:64-i128:128-f80:128-n8:16:32:64-S128"
target triple = "x86_64-pc-linux-gnu"

; Function Attrs: mustprogress uwtable
define noundef i64 @_ZN4dmlc2io12LineSplitter15SeekRecordBeginEPNS_6StreamE(ptr noundef nonnull align 8 dereferenceable(200) %0, ptr noundef %1) unnamed_addr #4 align 2 {
  %3 = alloca i64, align 8
  %4 = alloca ptr, align 8
  %5 = alloca ptr, align 8
  %6 = alloca i8, align 1
  %7 = alloca i64, align 8
  %8 = alloca i32, align 4
  store ptr %0, ptr %4, align 8, !tbaa !3
  store ptr %1, ptr %5, align 8, !tbaa !8
  call void @llvm.lifetime.start.p0(i64 1, ptr %6) #3
  store i8 0, ptr %6, align 1, !tbaa !10
  call void @llvm.lifetime.start.p0(i64 8, ptr %7) #3
  store i64 0, ptr %7, align 8, !tbaa !11
  br label %9

9:                                                ; preds = %30, %2
  br label %10

10:                                               ; preds = %9
  %11 = load ptr, ptr %5, align 8, !tbaa !8
  %12 = load ptr, ptr %11, align 8, !tbaa !13
  %13 = getelementptr inbounds ptr, ptr %12, i64 0
  %14 = load ptr, ptr %13, align 8
  %15 = call noundef i64 %14(ptr noundef nonnull align 8 dereferenceable(8) %11, ptr noundef %6, i64 noundef 1)
  %16 = icmp eq i64 %15, 0
  br i1 %16, label %17, label %19

17:                                               ; preds = %10
  %18 = load i64, ptr %7, align 8, !tbaa !11
  store i64 %18, ptr %3, align 8
  store i32 1, ptr %8, align 4
  br label %56

19:                                               ; preds = %10
  %20 = load i64, ptr %7, align 8, !tbaa !11
  %21 = add i64 %20, 1
  store i64 %21, ptr %7, align 8, !tbaa !11
  %22 = load i8, ptr %6, align 1, !tbaa !10
  %23 = sext i8 %22 to i32
  %24 = icmp eq i32 %23, 10
  br i1 %24, label %29, label %25

25:                                               ; preds = %19
  %26 = load i8, ptr %6, align 1, !tbaa !10
  %27 = sext i8 %26 to i32
  %28 = icmp eq i32 %27, 13
  br i1 %28, label %29, label %30

29:                                               ; preds = %25, %19
  br label %31

30:                                               ; preds = %25
  br label %9, !llvm.loop !15

31:                                               ; preds = %29
  br label %32

32:                                               ; preds = %51, %31
  br label %33

33:                                               ; preds = %32
  %34 = load ptr, ptr %5, align 8, !tbaa !8
  %35 = load ptr, ptr %34, align 8, !tbaa !13
  %36 = getelementptr inbounds ptr, ptr %35, i64 0
  %37 = load ptr, ptr %36, align 8
  %38 = call noundef i64 %37(ptr noundef nonnull align 8 dereferenceable(8) %34, ptr noundef %6, i64 noundef 1)
  %39 = icmp eq i64 %38, 0
  br i1 %39, label %40, label %42

40:                                               ; preds = %33
  %41 = load i64, ptr %7, align 8, !tbaa !11
  store i64 %41, ptr %3, align 8
  store i32 1, ptr %8, align 4
  br label %56

42:                                               ; preds = %33
  %43 = load i8, ptr %6, align 1, !tbaa !10
  %44 = sext i8 %43 to i32
  %45 = icmp ne i32 %44, 10
  br i1 %45, label %46, label %51

46:                                               ; preds = %42
  %47 = load i8, ptr %6, align 1, !tbaa !10
  %48 = sext i8 %47 to i32
  %49 = icmp ne i32 %48, 13
  br i1 %49, label %50, label %51

50:                                               ; preds = %46
  br label %54

51:                                               ; preds = %46, %42
  %52 = load i64, ptr %7, align 8, !tbaa !11
  %53 = add i64 %52, 1
  store i64 %53, ptr %7, align 8, !tbaa !11
  br label %32, !llvm.loop !17

54:                                               ; preds = %50
  %55 = load i64, ptr %7, align 8, !tbaa !11
  store i64 %55, ptr %3, align 8
  store i32 1, ptr %8, align 4
  br label %56

56:                                               ; preds = %54, %40, %17
  call void @llvm.lifetime.end.p0(i64 8, ptr %7) #3
  call void @llvm.lifetime.end.p0(i64 1, ptr %6) #3
  %57 = load i64, ptr %3, align 8
  ret i64 %57
}