; Function Attrs: mustprogress uwtable
define noundef i64 @_ZN4dmlc2io12LineSplitter15SeekRecordBeginEPNS_6StreamE(ptr nonnull readnone align 8 captures(none) %0, ptr noundef %1) unnamed_addr #3 align 2 {
  %3 = alloca i8, align 1
  call void @llvm.lifetime.start.p0(i64 1, ptr nonnull %3) #12
  store i8 0, ptr %3, align 1, !tbaa !3
  br label %4

4:                                                ; preds = %9, %2
  %.0 = phi i64 [ 0, %2 ], [ %10, %9 ]
  %5 = load ptr, ptr %1, align 8, !tbaa !6
  %6 = load ptr, ptr %5, align 8
  %7 = call noundef i64 %6(ptr noundef nonnull align 8 dereferenceable(8) %1, ptr noundef nonnull %3, i64 noundef 1)
  %8 = icmp eq i64 %7, 0
  br i1 %8, label %.loopexit, label %9

9:                                                ; preds = %4
  %10 = add i64 %.0, 1
  %11 = load i8, ptr %3, align 1, !tbaa !3
  switch i8 %11, label %4 [
    i8 13, label %.preheader
    i8 10, label %.preheader
  ]

.preheader:                                       ; preds = %9, %9
  %12 = load ptr, ptr %1, align 8, !tbaa !6
  %13 = load ptr, ptr %12, align 8
  %14 = call noundef i64 %13(ptr noundef nonnull align 8 dereferenceable(8) %1, ptr noundef nonnull %3, i64 noundef 1)
  %15 = icmp eq i64 %14, 0
  br i1 %15, label %.loopexit, label %.lr.ph

.lr.ph:                                           ; preds = %.preheader, %17
  %.115 = phi i64 [ %18, %17 ], [ %10, %.preheader ]
  %16 = load i8, ptr %3, align 1, !tbaa !3
  switch i8 %16, label %.loopexit [
    i8 13, label %17
    i8 10, label %17
  ]

17:                                               ; preds = %.lr.ph, %.lr.ph
  %18 = add i64 %.115, 1
  %19 = load ptr, ptr %1, align 8, !tbaa !6
  %20 = load ptr, ptr %19, align 8
  %21 = call noundef i64 %20(ptr noundef nonnull align 8 dereferenceable(8) %1, ptr noundef nonnull %3, i64 noundef 1)
  %22 = icmp eq i64 %21, 0
  br i1 %22, label %.loopexit, label %.lr.ph, !llvm.loop !8

.loopexit:                                        ; preds = %4, %17, %.lr.ph, %.preheader
  %.012 = phi i64 [ %10, %.preheader ], [ %18, %17 ], [ %.115, %.lr.ph ], [ %.0, %4 ]
  call void @llvm.lifetime.end.p0(i64 1, ptr nonnull %3) #12
  ret i64 %.012
}